target datalayout = "e-m:e-p270:32:32-p271:32:32-p272:64:64-i64:64-i128:128-f80:128-n8:16:32:64-S128"
target triple = "x86_64-pc-linux-gnu"

%class.NumberlikeArray = type { i32, i32, ptr }

@_ZTIPKc = external constant ptr
@.str.5 = private unnamed_addr constant [79 x i8] c"BigUnsigned constructor: Cannot construct a BigUnsigned from a negative number\00", align 1

; Function Attrs: mustprogress uwtable
define linkonce_odr void @_ZN11BigUnsigned17initFromPrimitiveIiEEvT_(ptr noundef nonnull align 8 dereferenceable(16) %0, i32 noundef %1) #0 comdat align 2 {
  %3 = alloca ptr, align 8
  %4 = alloca i32, align 4
  store ptr %0, ptr %3, align 8, !tbaa !6
  store i32 %1, ptr %4, align 4, !tbaa !21
  %5 = load ptr, ptr %3, align 8
  %6 = load i32, ptr %4, align 4, !tbaa !21
  %7 = icmp eq i32 %6, 0
  br i1 %7, label %8, label %9

8:                                                ; preds = %2
  br label %19

9:                                                ; preds = %2
  %10 = getelementptr inbounds nuw %class.NumberlikeArray, ptr %5, i32 0, i32 0
  store i32 1, ptr %10, align 8, !tbaa !15
  %11 = call noalias noundef nonnull ptr @_Znam(i64 noundef 8) #8
  %12 = getelementptr inbounds nuw %class.NumberlikeArray, ptr %5, i32 0, i32 2
  store ptr %11, ptr %12, align 8, !tbaa !20
  %13 = getelementptr inbounds nuw %class.NumberlikeArray, ptr %5, i32 0, i32 1
  store i32 1, ptr %13, align 4, !tbaa !19
  %14 = load i32, ptr %4, align 4, !tbaa !21
  %15 = sext i32 %14 to i64
  %16 = getelementptr inbounds nuw %class.NumberlikeArray, ptr %5, i32 0, i32 2
  %17 = load ptr, ptr %16, align 8, !tbaa !20
  %18 = getelementptr inbounds i64, ptr %17, i64 0
  store i64 %15, ptr %18, align 8, !tbaa !11
  br label %19

19:                                               ; preds = %9, %8
  ret void
}

; Function Attrs: mustprogress nounwind uwtable
define linkonce_odr void @_ZN15NumberlikeArrayImED2Ev(ptr noundef nonnull align 8 dereferenceable(16) %0) unnamed_addr #1 comdat align 2 {
  %2 = alloca ptr, align 8
  store ptr %0, ptr %2, align 8, !tbaa !13
  %3 = load ptr, ptr %2, align 8
  %4 = getelementptr inbounds nuw %class.NumberlikeArray, ptr %3, i32 0, i32 2
  %5 = load ptr, ptr %4, align 8, !tbaa !20
  %6 = icmp eq ptr %5, null
  br i1 %6, label %8, label %7

7:                                                ; preds = %1
  call void @_ZdaPv(ptr noundef %5) #10
  br label %8

8:                                                ; preds = %7, %1
  ret void
}

; Function Attrs: mustprogress uwtable
define linkonce_odr void @_ZN11BigUnsigned23initFromSignedPrimitiveIiEEvT_(ptr noundef nonnull align 8 dereferenceable(16) %0, i32 noundef %1) #0 comdat align 2 {
  %3 = alloca ptr, align 8
  %4 = alloca i32, align 4
  store ptr %0, ptr %3, align 8, !tbaa !6
  store i32 %1, ptr %4, align 4, !tbaa !21
  %5 = load ptr, ptr %3, align 8
  %6 = load i32, ptr %4, align 4, !tbaa !21
  %7 = icmp slt i32 %6, 0
  br i1 %7, label %8, label %10

8:                                                ; preds = %2
  %9 = call ptr @__cxa_allocate_exception(i64 8) #7
  store ptr @.str.5, ptr %9, align 16, !tbaa !24
  call void @__cxa_throw(ptr %9, ptr @_ZTIPKc, ptr null) #9
  unreachable

10:                                               ; preds = %2
  %11 = load i32, ptr %4, align 4, !tbaa !21
  call void @_ZN11BigUnsigned17initFromPrimitiveIiEEvT_(ptr noundef nonnull align 8 dereferenceable(16) %5, i32 noundef %11)
  br label %12

12:                                               ; preds = %10
  ret void
}

; Function Attrs: mustprogress nounwind uwtable
define linkonce_odr void @_ZN15NumberlikeArrayImEC2Ev(ptr noundef nonnull align 8 dereferenceable(16) %0) unnamed_addr #1 comdat align 2 {
  %2 = alloca ptr, align 8
  store ptr %0, ptr %2, align 8, !tbaa !13
  %3 = load ptr, ptr %2, align 8
  %4 = getelementptr inbounds nuw %class.NumberlikeArray, ptr %3, i32 0, i32 0
  store i32 0, ptr %4, align 8, !tbaa !15
  %5 = getelementptr inbounds nuw %class.NumberlikeArray, ptr %3, i32 0, i32 1
  store i32 0, ptr %5, align 4, !tbaa !19
  %6 = getelementptr inbounds nuw %class.NumberlikeArray, ptr %3, i32 0, i32 2
  store ptr null, ptr %6, align 8, !tbaa !20
  ret void
}

; Function Attrs: mustprogress uwtable
define void @_ZN11BigUnsignedC2Ei(ptr noundef nonnull align 8 dereferenceable(16) %0, i32 noundef %1) unnamed_addr #0 align 2 personality ptr @__gxx_personality_v0 {
  %3 = alloca ptr, align 8
  %4 = alloca i32, align 4
  %5 = alloca ptr, align 8
  %6 = alloca i32, align 4
  store ptr %0, ptr %3, align 8, !tbaa !6
  store i32 %1, ptr %4, align 4, !tbaa !21
  %7 = load ptr, ptr %3, align 8
  call void @_ZN15NumberlikeArrayImEC2Ev(ptr noundef nonnull align 8 dereferenceable(16) %7)
  %8 = load i32, ptr %4, align 4, !tbaa !21
  invoke void @_ZN11BigUnsigned23initFromSignedPrimitiveIiEEvT_(ptr noundef nonnull align 8 dereferenceable(16) %7, i32 noundef %8)
          to label %9 unwind label %10

9:                                                ; preds = %2
  ret void

10:                                               ; preds = %2
  %11 = landingpad { ptr, i32 }
          cleanup
  %12 = extractvalue { ptr, i32 } %11, 0
  store ptr %12, ptr %5, align 8
  %13 = extractvalue { ptr, i32 } %11, 1
  store i32 %13, ptr %6, align 4
  call void @_ZN15NumberlikeArrayImED2Ev(ptr noundef nonnull align 8 dereferenceable(16) %7) #7
  br label %14

14:                                               ; preds = %10
  %15 = load ptr, ptr %5, align 8
  %16 = load i32, ptr %6, align 4
  %17 = insertvalue { ptr, i32 } poison, ptr %15, 0
  %18 = insertvalue { ptr, i32 } %17, i32 %16, 1
  resume { ptr, i32 } %18
}